; Function Attrs: mustprogress uwtable
define void @_ZN5arrow16CPUMemoryManager4MakeERKSt10shared_ptrINS_6DeviceEEPNS_10MemoryPoolE(ptr noalias sret(%"class.std::shared_ptr.14") align 8 %agg.result, ptr nocapture noundef nonnull readonly align 8 dereferenceable(16) %device, ptr noundef %pool) local_unnamed_addr #4 align 2 personality ptr @__gxx_personality_v0 {
entry:
  %call = tail call noalias noundef nonnull dereferenceable(48) ptr @_Znwm(i64 noundef 48) #21
  %0 = getelementptr inbounds i8, ptr %call, i64 8
  tail call void @llvm.memset.p0.i64(ptr noundef nonnull align 8 dereferenceable(16) %0, i8 0, i64 16, i1 false)
  store ptr getelementptr inbounds ({ [15 x ptr] }, ptr @_ZTVN5arrow13MemoryManagerE, i64 0, i32 0, i64 2), ptr %call, align 8
  %device_.i.i = getelementptr inbounds i8, ptr %call, i64 24
  %1 = load <2 x ptr>, ptr %device, align 8
  store <2 x ptr> %1, ptr %device_.i.i, align 8
  %2 = extractelement <2 x ptr> %1, i64 1
  %cmp.not.i.i.i.i.i = icmp eq ptr %2, null
  br i1 %cmp.not.i.i.i.i.i, label %invoke.cont, label %if.then.i.i.i.i.i

if.then.i.i.i.i.i:                                ; preds = %entry
  %_M_use_count.i.i.i.i.i.i = getelementptr inbounds i8, ptr %2, i64 8
  %3 = load i8, ptr @__libc_single_threaded, align 1
  %tobool.i.i.not.i.i.i.i.i.i = icmp eq i8 %3, 0
  br i1 %tobool.i.i.not.i.i.i.i.i.i, label %if.else.i.i.i.i.i.i.i, label %if.then.i.i.i.i.i.i.i

if.then.i.i.i.i.i.i.i:                            ; preds = %if.then.i.i.i.i.i
  %4 = load i32, ptr %_M_use_count.i.i.i.i.i.i, align 4
  %add.i.i.i.i.i.i.i = add nsw i32 %4, 1
  store i32 %add.i.i.i.i.i.i.i, ptr %_M_use_count.i.i.i.i.i.i, align 4
  br label %invoke.cont

if.else.i.i.i.i.i.i.i:                            ; preds = %if.then.i.i.i.i.i
  %5 = atomicrmw volatile add ptr %_M_use_count.i.i.i.i.i.i, i32 1 acq_rel, align 4
  br label %invoke.cont

invoke.cont:                                      ; preds = %if.else.i.i.i.i.i.i.i, %if.then.i.i.i.i.i.i.i, %entry
  store ptr getelementptr inbounds ({ [15 x ptr] }, ptr @_ZTVN5arrow16CPUMemoryManagerE, i64 0, i32 0, i64 2), ptr %call, align 8
  %pool_.i = getelementptr inbounds i8, ptr %call, i64 40
  store ptr %pool, ptr %pool_.i, align 8
  tail call void @_ZNSt12__shared_ptrIN5arrow13MemoryManagerELN9__gnu_cxx12_Lock_policyE2EEC2INS0_16CPUMemoryManagerEvEEPT_(ptr noundef nonnull align 8 dereferenceable(16) %agg.result, ptr noundef nonnull %call)
  ret void
}